target datalayout = "e-m:e-p270:32:32-p271:32:32-p272:64:64-i64:64-i128:128-f80:128-n8:16:32:64-S128"
target triple = "x86_64-pc-linux-gnu"

%struct.dh_st = type { i32, i32, %struct.ffc_params_st, i32, ptr, ptr, i32, ptr, %struct.CRYPTO_REF_COUNT, %struct.crypto_ex_data_st, ptr, ptr, ptr, ptr, i64 }
%struct.ffc_params_st = type { ptr, ptr, ptr, ptr, ptr, i64, i32, i32, i32, i32, i32, ptr, ptr, i32 }
%struct.CRYPTO_REF_COUNT = type { i32 }
%struct.crypto_ex_data_st = type { ptr, ptr }

; Function Attrs: nounwind uwtable
define i32 @ossl_dh_check_pub_key_partial(ptr noundef %0, ptr noundef %1, ptr noundef %2) #0 {
  %4 = alloca ptr, align 8
  %5 = alloca ptr, align 8
  %6 = alloca ptr, align 8
  store ptr %0, ptr %4, align 8, !tbaa !3
  store ptr %1, ptr %5, align 8, !tbaa !12
  store ptr %2, ptr %6, align 8, !tbaa !10
  %7 = load ptr, ptr %4, align 8, !tbaa !3
  %8 = getelementptr inbounds nuw %struct.dh_st, ptr %7, i32 0, i32 2
  %9 = load ptr, ptr %5, align 8, !tbaa !12
  %10 = load ptr, ptr %6, align 8, !tbaa !10
  %11 = call i32 @ossl_ffc_validate_public_key_partial(ptr noundef %8, ptr noundef %9, ptr noundef %10)
  %12 = icmp ne i32 %11, 0
  br i1 %12, label %13, label %17

13:                                               ; preds = %3
  %14 = load ptr, ptr %6, align 8, !tbaa !10
  %15 = load i32, ptr %14, align 4, !tbaa !8
  %16 = icmp eq i32 %15, 0
  br label %17

17:                                               ; preds = %13, %3
  %18 = phi i1 [ false, %3 ], [ %16, %13 ]
  %19 = zext i1 %18 to i32
  ret i32 %19
}