; Function Attrs: nounwind uwtable
define range(i32 0, 2) i32 @ossl_dh_check_pub_key_partial(ptr noundef %0, ptr noundef %1, ptr noundef %2) local_unnamed_addr #0 {
  %4 = getelementptr inbounds nuw i8, ptr %0, i64 8
  %5 = tail call i32 @ossl_ffc_validate_public_key_partial(ptr noundef nonnull %4, ptr noundef %1, ptr noundef %2) #3
  %.not = icmp eq i32 %5, 0
  br i1 %.not, label %10, label %6

6:                                                ; preds = %3
  %7 = load i32, ptr %2, align 4, !tbaa !3
  %8 = icmp eq i32 %7, 0
  %9 = zext i1 %8 to i32
  br label %10

10:                                               ; preds = %6, %3
  %11 = phi i32 [ 0, %3 ], [ %9, %6 ]
  ret i32 %11
}